; Function Attrs: mustprogress nofree norecurse nosync nounwind willreturn memory(argmem: readwrite) uwtable
define dso_local void @_ZN5clang11FileManager8AddStatsERKS0_(ptr nocapture noundef nonnull align 8 dereferenceable(808) %0, ptr nocapture noundef nonnull readonly align 8 dereferenceable(808) %1) local_unnamed_addr #4 align 2 {
  %3 = getelementptr inbounds nuw i8, ptr %1, i64 780
  %4 = load i32, ptr %3, align 4
  %5 = getelementptr inbounds nuw i8, ptr %0, i64 780
  %6 = load i32, ptr %5, align 4
  %7 = add i32 %6, %4
  store i32 %7, ptr %5, align 4
  %8 = getelementptr inbounds nuw i8, ptr %1, i64 784
  %9 = load i32, ptr %8, align 8
  %10 = getelementptr inbounds nuw i8, ptr %0, i64 784
  %11 = load i32, ptr %10, align 8
  %12 = add i32 %11, %9
  store i32 %12, ptr %10, align 8
  %13 = getelementptr inbounds nuw i8, ptr %1, i64 788
  %14 = load i32, ptr %13, align 4
  %15 = getelementptr inbounds nuw i8, ptr %0, i64 788
  %16 = load i32, ptr %15, align 4
  %17 = add i32 %16, %14
  store i32 %17, ptr %15, align 4
  %18 = getelementptr inbounds nuw i8, ptr %1, i64 792
  %19 = load i32, ptr %18, align 8
  %20 = getelementptr inbounds nuw i8, ptr %0, i64 792
  %21 = load i32, ptr %20, align 8
  %22 = add i32 %21, %19
  store i32 %22, ptr %20, align 8
  ret void
}